target datalayout = "e-m:e-p270:32:32-p271:32:32-p272:64:64-i64:64-i128:128-f80:128-n8:16:32:64-S128"
target triple = "x86_64-pc-linux-gnu"

%"class.google::protobuf::internal::LogMessage" = type { i32, ptr, i32, %"class.std::__cxx11::basic_string" }
%"class.std::__cxx11::basic_string" = type { %"struct.std::__cxx11::basic_string<char>::_Alloc_hider", i64, %union.anon }
%"struct.std::__cxx11::basic_string<char>::_Alloc_hider" = type { ptr }
%union.anon = type { i64, [8 x i8] }
%"class.google::protobuf::internal::LogFinisher" = type { i8 }
%"class.google::protobuf::strings::ByteSink" = type { ptr }
%"class.google::protobuf::strings::GrowingArrayByteSink" = type { %"class.google::protobuf::strings::ByteSink", i64, ptr, i64 }

@.str = private unnamed_addr constant [149 x i8] c"generated/home/dtcxzyw/WorkSpace/Projects/compilers/llvm-opt-benchmark/bench/opencv/opencv/3rdparty/protobuf/src/google/protobuf/stubs/bytestream.cc\00", align 1
@.str.6 = private unnamed_addr constant [63 x i8] c"CHECK failed: !(buf_ <= bytes && bytes < (buf_ + capacity_)): \00", align 1
@.str.7 = private unnamed_addr constant [38 x i8] c"Append() bytes[] overlaps with buf_[]\00", align 1

; Function Attrs: inlinehint mustprogress nounwind uwtable
define linkonce_odr noundef nonnull align 8 dereferenceable(8) ptr @_ZSt3maxImERKT_S2_S2_(ptr noundef nonnull align 8 dereferenceable(8) %0, ptr noundef nonnull align 8 dereferenceable(8) %1) #7 comdat {
  %3 = alloca ptr, align 8
  %4 = alloca ptr, align 8
  %5 = alloca ptr, align 8
  store ptr %0, ptr %4, align 8, !tbaa !21
  store ptr %1, ptr %5, align 8, !tbaa !21
  %6 = load ptr, ptr %4, align 8, !tbaa !21
  %7 = load i64, ptr %6, align 8, !tbaa !10
  %8 = load ptr, ptr %5, align 8, !tbaa !21
  %9 = load i64, ptr %8, align 8, !tbaa !10
  %10 = icmp ult i64 %7, %9
  br i1 %10, label %11, label %13

11:                                               ; preds = %2
  %12 = load ptr, ptr %5, align 8, !tbaa !21
  store ptr %12, ptr %3, align 8
  br label %15

13:                                               ; preds = %2
  %14 = load ptr, ptr %4, align 8, !tbaa !21
  store ptr %14, ptr %3, align 8
  br label %15

15:                                               ; preds = %13, %11
  %16 = load ptr, ptr %3, align 8
  ret ptr %16
}

; Function Attrs: mustprogress uwtable
define hidden void @_ZN6google8protobuf7strings20GrowingArrayByteSink6ExpandEm(ptr noundef nonnull align 8 dereferenceable(32) %0, i64 noundef %1) #4 align 2 {
  %3 = alloca ptr, align 8
  %4 = alloca i64, align 8
  %5 = alloca i64, align 8
  %6 = alloca i64, align 8
  %7 = alloca i64, align 8
  %8 = alloca ptr, align 8
  store ptr %0, ptr %3, align 8, !tbaa !40
  store i64 %1, ptr %4, align 8, !tbaa !10
  %9 = load ptr, ptr %3, align 8
  call void @llvm.lifetime.start.p0(i64 8, ptr %5) #3
  call void @llvm.lifetime.start.p0(i64 8, ptr %6) #3
  %10 = getelementptr inbounds nuw %"class.google::protobuf::strings::GrowingArrayByteSink", ptr %9, i32 0, i32 1
  %11 = load i64, ptr %10, align 8, !tbaa !42
  %12 = load i64, ptr %4, align 8, !tbaa !10
  %13 = add i64 %11, %12
  store i64 %13, ptr %6, align 8, !tbaa !10
  call void @llvm.lifetime.start.p0(i64 8, ptr %7) #3
  %14 = getelementptr inbounds nuw %"class.google::protobuf::strings::GrowingArrayByteSink", ptr %9, i32 0, i32 1
  %15 = load i64, ptr %14, align 8, !tbaa !42
  %16 = mul i64 3, %15
  %17 = udiv i64 %16, 2
  store i64 %17, ptr %7, align 8, !tbaa !10
  %18 = call noundef nonnull align 8 dereferenceable(8) ptr @_ZSt3maxImERKT_S2_S2_(ptr noundef nonnull align 8 dereferenceable(8) %6, ptr noundef nonnull align 8 dereferenceable(8) %7)
  %19 = load i64, ptr %18, align 8, !tbaa !10
  call void @llvm.lifetime.end.p0(i64 8, ptr %7) #3
  call void @llvm.lifetime.end.p0(i64 8, ptr %6) #3
  store i64 %19, ptr %5, align 8, !tbaa !10
  call void @llvm.lifetime.start.p0(i64 8, ptr %8) #3
  %20 = load i64, ptr %5, align 8, !tbaa !10
  %21 = call noalias noundef nonnull ptr @_Znam(i64 noundef %20) #14
  store ptr %21, ptr %8, align 8, !tbaa !26
  %22 = load ptr, ptr %8, align 8, !tbaa !26
  %23 = getelementptr inbounds nuw %"class.google::protobuf::strings::GrowingArrayByteSink", ptr %9, i32 0, i32 2
  %24 = load ptr, ptr %23, align 8, !tbaa !44
  %25 = getelementptr inbounds nuw %"class.google::protobuf::strings::GrowingArrayByteSink", ptr %9, i32 0, i32 3
  %26 = load i64, ptr %25, align 8, !tbaa !45
  call void @llvm.memcpy.p0.p0.i64(ptr align 1 %22, ptr align 1 %24, i64 %26, i1 false)
  %27 = getelementptr inbounds nuw %"class.google::protobuf::strings::GrowingArrayByteSink", ptr %9, i32 0, i32 2
  %28 = load ptr, ptr %27, align 8, !tbaa !44
  %29 = icmp eq ptr %28, null
  br i1 %29, label %31, label %30

30:                                               ; preds = %2
  call void @_ZdaPv(ptr noundef %28) #15
  br label %31

31:                                               ; preds = %30, %2
  %32 = load ptr, ptr %8, align 8, !tbaa !26
  %33 = getelementptr inbounds nuw %"class.google::protobuf::strings::GrowingArrayByteSink", ptr %9, i32 0, i32 2
  store ptr %32, ptr %33, align 8, !tbaa !44
  %34 = load i64, ptr %5, align 8, !tbaa !10
  %35 = getelementptr inbounds nuw %"class.google::protobuf::strings::GrowingArrayByteSink", ptr %9, i32 0, i32 1
  store i64 %34, ptr %35, align 8, !tbaa !42
  call void @llvm.lifetime.end.p0(i64 8, ptr %8) #3
  call void @llvm.lifetime.end.p0(i64 8, ptr %5) #3
  ret void
}

; Function Attrs: mustprogress uwtable
define hidden void @_ZN6google8protobuf7strings20GrowingArrayByteSink6AppendEPKcm(ptr noundef nonnull align 8 dereferenceable(32) %0, ptr noundef %1, i64 noundef %2) unnamed_addr #4 align 2 personality ptr @__gxx_personality_v0 {
  %4 = alloca ptr, align 8
  %5 = alloca ptr, align 8
  %6 = alloca i64, align 8
  %7 = alloca i64, align 8
  %8 = alloca %"class.google::protobuf::internal::LogMessage", align 8
  %9 = alloca i1, align 1
  %10 = alloca i1, align 1
  %11 = alloca ptr, align 8
  %12 = alloca i32, align 4
  %13 = alloca %"class.google::protobuf::internal::LogFinisher", align 1
  store ptr %0, ptr %4, align 8, !tbaa !40
  store ptr %1, ptr %5, align 8, !tbaa !26
  store i64 %2, ptr %6, align 8, !tbaa !10
  %14 = load ptr, ptr %4, align 8
  call void @llvm.lifetime.start.p0(i64 8, ptr %7) #3
  %15 = getelementptr inbounds nuw %"class.google::protobuf::strings::GrowingArrayByteSink", ptr %14, i32 0, i32 1
  %16 = load i64, ptr %15, align 8, !tbaa !42
  %17 = getelementptr inbounds nuw %"class.google::protobuf::strings::GrowingArrayByteSink", ptr %14, i32 0, i32 3
  %18 = load i64, ptr %17, align 8, !tbaa !45
  %19 = sub i64 %16, %18
  store i64 %19, ptr %7, align 8, !tbaa !10
  %20 = load ptr, ptr %5, align 8, !tbaa !26
  %21 = getelementptr inbounds nuw %"class.google::protobuf::strings::GrowingArrayByteSink", ptr %14, i32 0, i32 2
  %22 = load ptr, ptr %21, align 8, !tbaa !44
  %23 = getelementptr inbounds nuw %"class.google::protobuf::strings::GrowingArrayByteSink", ptr %14, i32 0, i32 3
  %24 = load i64, ptr %23, align 8, !tbaa !45
  %25 = getelementptr inbounds nuw i8, ptr %22, i64 %24
  %26 = icmp ne ptr %20, %25
  br i1 %26, label %27, label %72

27:                                               ; preds = %3
  br label %28

28:                                               ; preds = %55, %27
  br i1 false, label %29, label %71

29:                                               ; preds = %28
  %30 = getelementptr inbounds nuw %"class.google::protobuf::strings::GrowingArrayByteSink", ptr %14, i32 0, i32 2
  %31 = load ptr, ptr %30, align 8, !tbaa !44
  %32 = load ptr, ptr %5, align 8, !tbaa !26
  %33 = icmp ule ptr %31, %32
  store i1 false, ptr %9, align 1
  store i1 false, ptr %10, align 1
  call void @llvm.lifetime.start.p0(i64 1, ptr %13) #3
  br i1 %33, label %34, label %42

34:                                               ; preds = %29
  %35 = load ptr, ptr %5, align 8, !tbaa !26
  %36 = getelementptr inbounds nuw %"class.google::protobuf::strings::GrowingArrayByteSink", ptr %14, i32 0, i32 2
  %37 = load ptr, ptr %36, align 8, !tbaa !44
  %38 = getelementptr inbounds nuw %"class.google::protobuf::strings::GrowingArrayByteSink", ptr %14, i32 0, i32 1
  %39 = load i64, ptr %38, align 8, !tbaa !42
  %40 = getelementptr inbounds nuw i8, ptr %37, i64 %39
  %41 = icmp ult ptr %35, %40
  br i1 %41, label %43, label %42

42:                                               ; preds = %34, %29
  br label %49

43:                                               ; preds = %34
  call void @llvm.lifetime.start.p0(i64 56, ptr %8) #3
  store i1 true, ptr %9, align 1
  call void @_ZN6google8protobuf8internal10LogMessageC1ENS0_8LogLevelEPKci(ptr noundef nonnull align 8 dereferenceable(56) %8, i32 noundef 3, ptr noundef @.str, i32 noundef 102)
  store i1 true, ptr %10, align 1
  %44 = invoke noundef nonnull align 8 dereferenceable(56) ptr @_ZN6google8protobuf8internal10LogMessagelsEPKc(ptr noundef nonnull align 8 dereferenceable(56) %8, ptr noundef @.str.6)
          to label %45 unwind label %56

45:                                               ; preds = %43
  %46 = invoke noundef nonnull align 8 dereferenceable(56) ptr @_ZN6google8protobuf8internal10LogMessagelsEPKc(ptr noundef nonnull align 8 dereferenceable(56) %44, ptr noundef @.str.7)
          to label %47 unwind label %56

47:                                               ; preds = %45
  invoke void @_ZN6google8protobuf8internal11LogFinisheraSERNS1_10LogMessageE(ptr noundef nonnull align 1 dereferenceable(1) %13, ptr noundef nonnull align 8 dereferenceable(56) %46)
          to label %48 unwind label %60

48:                                               ; preds = %47
  br label %49

49:                                               ; preds = %48, %42
  call void @llvm.lifetime.end.p0(i64 1, ptr %13) #3
  %50 = load i1, ptr %10, align 1
  br i1 %50, label %51, label %52

51:                                               ; preds = %49
  call void @_ZN6google8protobuf8internal10LogMessageD1Ev(ptr noundef nonnull align 8 dereferenceable(56) %8) #3
  br label %52

52:                                               ; preds = %51, %49
  %53 = load i1, ptr %9, align 1
  br i1 %53, label %54, label %55

54:                                               ; preds = %52
  call void @llvm.lifetime.end.p0(i64 56, ptr %8) #3
  br label %55

55:                                               ; preds = %54, %52
  br label %28, !llvm.loop !46

56:                                               ; preds = %45, %43
  %57 = landingpad { ptr, i32 }
          cleanup
  %58 = extractvalue { ptr, i32 } %57, 0
  store ptr %58, ptr %11, align 8
  %59 = extractvalue { ptr, i32 } %57, 1
  store i32 %59, ptr %12, align 4
  br label %64

60:                                               ; preds = %47
  %61 = landingpad { ptr, i32 }
          cleanup
  %62 = extractvalue { ptr, i32 } %61, 0
  store ptr %62, ptr %11, align 8
  %63 = extractvalue { ptr, i32 } %61, 1
  store i32 %63, ptr %12, align 4
  call void @llvm.lifetime.end.p0(i64 1, ptr %13) #3
  br label %64

64:                                               ; preds = %60, %56
  %65 = load i1, ptr %10, align 1
  br i1 %65, label %66, label %67

66:                                               ; preds = %64
  call void @_ZN6google8protobuf8internal10LogMessageD1Ev(ptr noundef nonnull align 8 dereferenceable(56) %8) #3
  br label %67

67:                                               ; preds = %66, %64
  %68 = load i1, ptr %9, align 1
  br i1 %68, label %69, label %70

69:                                               ; preds = %67
  call void @llvm.lifetime.end.p0(i64 56, ptr %8) #3
  br label %70

70:                                               ; preds = %69, %67
  call void @llvm.lifetime.end.p0(i64 8, ptr %7) #3
  br label %104

71:                                               ; preds = %28
  br label %72

72:                                               ; preds = %71, %3
  %73 = load i64, ptr %6, align 8, !tbaa !10
  %74 = load i64, ptr %7, align 8, !tbaa !10
  %75 = icmp ugt i64 %73, %74
  br i1 %75, label %76, label %80

76:                                               ; preds = %72
  %77 = load i64, ptr %6, align 8, !tbaa !10
  %78 = load i64, ptr %7, align 8, !tbaa !10
  %79 = sub i64 %77, %78
  call void @_ZN6google8protobuf7strings20GrowingArrayByteSink6ExpandEm(ptr noundef nonnull align 8 dereferenceable(32) %14, i64 noundef %79)
  br label %80

80:                                               ; preds = %76, %72
  %81 = load i64, ptr %6, align 8, !tbaa !10
  %82 = icmp ugt i64 %81, 0
  br i1 %82, label %83, label %99

83:                                               ; preds = %80
  %84 = load ptr, ptr %5, align 8, !tbaa !26
  %85 = getelementptr inbounds nuw %"class.google::protobuf::strings::GrowingArrayByteSink", ptr %14, i32 0, i32 2
  %86 = load ptr, ptr %85, align 8, !tbaa !44
  %87 = getelementptr inbounds nuw %"class.google::protobuf::strings::GrowingArrayByteSink", ptr %14, i32 0, i32 3
  %88 = load i64, ptr %87, align 8, !tbaa !45
  %89 = getelementptr inbounds nuw i8, ptr %86, i64 %88
  %90 = icmp ne ptr %84, %89
  br i1 %90, label %91, label %99

91:                                               ; preds = %83
  %92 = getelementptr inbounds nuw %"class.google::protobuf::strings::GrowingArrayByteSink", ptr %14, i32 0, i32 2
  %93 = load ptr, ptr %92, align 8, !tbaa !44
  %94 = getelementptr inbounds nuw %"class.google::protobuf::strings::GrowingArrayByteSink", ptr %14, i32 0, i32 3
  %95 = load i64, ptr %94, align 8, !tbaa !45
  %96 = getelementptr inbounds nuw i8, ptr %93, i64 %95
  %97 = load ptr, ptr %5, align 8, !tbaa !26
  %98 = load i64, ptr %6, align 8, !tbaa !10
  call void @llvm.memcpy.p0.p0.i64(ptr align 1 %96, ptr align 1 %97, i64 %98, i1 false)
  br label %99

99:                                               ; preds = %91, %83, %80
  %100 = load i64, ptr %6, align 8, !tbaa !10
  %101 = getelementptr inbounds nuw %"class.google::protobuf::strings::GrowingArrayByteSink", ptr %14, i32 0, i32 3
  %102 = load i64, ptr %101, align 8, !tbaa !45
  %103 = add i64 %102, %100
  store i64 %103, ptr %101, align 8, !tbaa !45
  call void @llvm.lifetime.end.p0(i64 8, ptr %7) #3
  ret void

104:                                              ; preds = %70
  %105 = load ptr, ptr %11, align 8
  %106 = load i32, ptr %12, align 4
  %107 = insertvalue { ptr, i32 } poison, ptr %105, 0
  %108 = insertvalue { ptr, i32 } %107, i32 %106, 1
  resume { ptr, i32 } %108
}